target datalayout = "e-m:e-p270:32:32-p271:32:32-p272:64:64-i64:64-i128:128-f80:128-n8:16:32:64-S128"
target triple = "x86_64-pc-linux-gnu"

%"class.boost::chrono::time_point" = type { %"class.boost::chrono::duration" }
%"class.boost::chrono::duration" = type { i64 }
%struct.tms = type { i64, i64, i64, i64 }

; Function Attrs: mustprogress nounwind uwtable
define linkonce_odr hidden noundef i64 @_ZN5boost6chrono15duration_valuesIlE4zeroEv() #2 comdat align 2 {
  ret i64 0
}

; Function Attrs: mustprogress uwtable
define linkonce_odr hidden i64 @_ZN5boost6chrono8durationIlSt5ratioILl1ELl1000000000EEE4zeroEv() #5 comdat align 2 {
  %1 = alloca %"class.boost::chrono::duration", align 8
  %2 = alloca i64, align 8
  call void @llvm.lifetime.start.p0(i64 8, ptr %2) #19
  %3 = call noundef i64 @_ZN5boost6chrono15duration_valuesIlE4zeroEv()
  store i64 %3, ptr %2, align 8, !tbaa !16
  call void @_ZN5boost6chrono8durationIlSt5ratioILl1ELl1000000000EEEC2IlEERKT_PNS_9enable_ifINS_3mpl4and_INS_14is_convertibleIS6_lEENSA_3or_INS0_23treat_as_floating_pointIlEENSB_INSA_4not_ISG_EENSH_INSF_IS6_EEEEN4mpl_5bool_ILb1EEESN_SN_EENSM_ILb0EEESP_SP_EESN_SN_SN_EEvE4typeE(ptr noundef nonnull align 8 dereferenceable(8) %1, ptr noundef nonnull align 8 dereferenceable(8) %2, ptr noundef null)
  call void @llvm.lifetime.end.p0(i64 8, ptr %2) #19
  %4 = getelementptr inbounds nuw %"class.boost::chrono::duration", ptr %1, i32 0, i32 0
  %5 = load i64, ptr %4, align 8
  ret i64 %5
}

; Function Attrs: noinline noreturn nounwind uwtable
define linkonce_odr hidden void @__clang_call_terminate(ptr noundef %0) #3 comdat {
  %2 = call ptr @__cxa_begin_catch(ptr %0) #19
  call void @_ZSt9terminatev() #20
  unreachable
}

; Function Attrs: alwaysinline mustprogress uwtable
define linkonce_odr hidden void @_ZN5boost6chrono10time_pointINS0_22process_real_cpu_clockENS0_8durationIlSt5ratioILl1ELl1000000000EEEEEC2Ev(ptr noundef nonnull align 8 dereferenceable(8) %0) unnamed_addr #8 comdat align 2 {
  %2 = alloca ptr, align 8
  store ptr %0, ptr %2, align 8, !tbaa !7
  %3 = load ptr, ptr %2, align 8
  %4 = getelementptr inbounds nuw %"class.boost::chrono::time_point", ptr %3, i32 0, i32 0
  %5 = call i64 @_ZN5boost6chrono8durationIlSt5ratioILl1ELl1000000000EEE4zeroEv()
  %6 = getelementptr inbounds nuw %"class.boost::chrono::duration", ptr %4, i32 0, i32 0
  store i64 %5, ptr %6, align 8
  ret void
}

; Function Attrs: alwaysinline mustprogress nounwind uwtable
define linkonce_odr hidden void @_ZN5boost6chrono10time_pointINS0_22process_real_cpu_clockENS0_8durationIlSt5ratioILl1ELl1000000000EEEEEC2ERKS6_(ptr noundef nonnull align 8 dereferenceable(8) %0, ptr noundef nonnull align 8 dereferenceable(8) %1) unnamed_addr #7 comdat align 2 {
  %3 = alloca ptr, align 8
  %4 = alloca ptr, align 8
  store ptr %0, ptr %3, align 8, !tbaa !7
  store ptr %1, ptr %4, align 8, !tbaa !7
  %5 = load ptr, ptr %3, align 8
  %6 = getelementptr inbounds nuw %"class.boost::chrono::time_point", ptr %5, i32 0, i32 0
  %7 = load ptr, ptr %4, align 8, !tbaa !7
  call void @llvm.memcpy.p0.p0.i64(ptr align 8 %6, ptr align 8 %7, i64 8, i1 false), !tbaa.struct !20
  ret void
}

; Function Attrs: alwaysinline mustprogress nounwind uwtable
define linkonce_odr hidden void @_ZN5boost6chrono8durationIlSt5ratioILl1ELl1000000000EEEC2IlEERKT_PNS_9enable_ifINS_3mpl4and_INS_14is_convertibleIS6_lEENSA_3or_INS0_23treat_as_floating_pointIlEENSB_INSA_4not_ISG_EENSH_INSF_IS6_EEEEN4mpl_5bool_ILb1EEESN_SN_EENSM_ILb0EEESP_SP_EESN_SN_SN_EEvE4typeE(ptr noundef nonnull align 8 dereferenceable(8) %0, ptr noundef nonnull align 8 dereferenceable(8) %1, ptr noundef %2) unnamed_addr #7 comdat align 2 {
  %4 = alloca ptr, align 8
  %5 = alloca ptr, align 8
  %6 = alloca ptr, align 8
  store ptr %0, ptr %4, align 8, !tbaa !7
  store ptr %1, ptr %5, align 8, !tbaa !7
  store ptr %2, ptr %6, align 8, !tbaa !7
  %7 = load ptr, ptr %4, align 8
  %8 = getelementptr inbounds nuw %"class.boost::chrono::duration", ptr %7, i32 0, i32 0
  %9 = load ptr, ptr %5, align 8, !tbaa !7
  %10 = load i64, ptr %9, align 8, !tbaa !16
  store i64 %10, ptr %8, align 8, !tbaa !18
  ret void
}

; Function Attrs: inlinehint mustprogress nounwind uwtable
define linkonce_odr hidden noundef i64 @_ZN5boost6chrono13chrono_detail11tick_factorEv() #1 comdat {
  %1 = alloca i64, align 8
  call void @llvm.lifetime.start.p0(i64 8, ptr %1) #19
  store i64 0, ptr %1, align 8, !tbaa !16
  %2 = load i64, ptr %1, align 8, !tbaa !16
  %3 = icmp ne i64 %2, 0
  br i1 %3, label %16, label %4

4:                                                ; preds = %0
  %5 = call i64 @sysconf(i32 noundef 2) #19
  store i64 %5, ptr %1, align 8, !tbaa !16
  %6 = icmp sle i64 %5, 0
  br i1 %6, label %7, label %8

7:                                                ; preds = %4
  store i64 -1, ptr %1, align 8, !tbaa !16
  br label %15

8:                                                ; preds = %4
  %9 = load i64, ptr %1, align 8, !tbaa !16
  %10 = sdiv i64 1000000000, %9
  store i64 %10, ptr %1, align 8, !tbaa !16
  %11 = load i64, ptr %1, align 8, !tbaa !16
  %12 = icmp ne i64 %11, 0
  br i1 %12, label %14, label %13

13:                                               ; preds = %8
  store i64 -1, ptr %1, align 8, !tbaa !16
  br label %14

14:                                               ; preds = %13, %8
  br label %15

15:                                               ; preds = %14, %7
  br label %16

16:                                               ; preds = %15, %0
  %17 = load i64, ptr %1, align 8, !tbaa !16
  call void @llvm.lifetime.end.p0(i64 8, ptr %1) #19
  ret i64 %17
}

; Function Attrs: mustprogress nounwind uwtable
define i64 @_ZN5boost6chrono22process_real_cpu_clock3nowEv() #2 align 2 personality ptr @__gxx_personality_v0 {
  %1 = alloca %"class.boost::chrono::time_point", align 8
  %2 = alloca %struct.tms, align 8
  %3 = alloca i64, align 8
  %4 = alloca %"class.boost::chrono::duration", align 8
  %5 = alloca i64, align 8
  %6 = alloca i32, align 4
  call void @llvm.lifetime.start.p0(i64 32, ptr %2) #19
  call void @llvm.lifetime.start.p0(i64 8, ptr %3) #19
  %7 = call i64 @times(ptr noundef %2) #19
  store i64 %7, ptr %3, align 8, !tbaa !16
  %8 = load i64, ptr %3, align 8, !tbaa !16
  %9 = icmp eq i64 %8, -1
  br i1 %9, label %10, label %11

10:                                               ; preds = %0
  br label %24

11:                                               ; preds = %0
  %12 = invoke noundef i64 @_ZN5boost6chrono13chrono_detail11tick_factorEv()
          to label %13 unwind label %30

13:                                               ; preds = %11
  %14 = icmp ne i64 %12, -1
  br i1 %14, label %15, label %22

15:                                               ; preds = %13
  call void @llvm.lifetime.start.p0(i64 8, ptr %4) #19
  call void @llvm.lifetime.start.p0(i64 8, ptr %5) #19
  %16 = load i64, ptr %3, align 8, !tbaa !16
  %17 = invoke noundef i64 @_ZN5boost6chrono13chrono_detail11tick_factorEv()
          to label %18 unwind label %30

18:                                               ; preds = %15
  %19 = mul nsw i64 %16, %17
  store i64 %19, ptr %5, align 8, !tbaa !16
  invoke void @_ZN5boost6chrono8durationIlSt5ratioILl1ELl1000000000EEEC2IlEERKT_PNS_9enable_ifINS_3mpl4and_INS_14is_convertibleIS6_lEENSA_3or_INS0_23treat_as_floating_pointIlEENSB_INSA_4not_ISG_EENSH_INSF_IS6_EEEEN4mpl_5bool_ILb1EEESN_SN_EENSM_ILb0EEESP_SP_EESN_SN_SN_EEvE4typeE(ptr noundef nonnull align 8 dereferenceable(8) %4, ptr noundef nonnull align 8 dereferenceable(8) %5, ptr noundef null)
          to label %20 unwind label %30

20:                                               ; preds = %18
  invoke void @_ZN5boost6chrono10time_pointINS0_22process_real_cpu_clockENS0_8durationIlSt5ratioILl1ELl1000000000EEEEEC2ERKS6_(ptr noundef nonnull align 8 dereferenceable(8) %1, ptr noundef nonnull align 8 dereferenceable(8) %4)
          to label %21 unwind label %30

21:                                               ; preds = %20
  call void @llvm.lifetime.end.p0(i64 8, ptr %5) #19
  call void @llvm.lifetime.end.p0(i64 8, ptr %4) #19
  store i32 1, ptr %6, align 4
  br label %26

22:                                               ; preds = %13
  br label %23

23:                                               ; preds = %22
  br label %24

24:                                               ; preds = %23, %10
  invoke void @_ZN5boost6chrono10time_pointINS0_22process_real_cpu_clockENS0_8durationIlSt5ratioILl1ELl1000000000EEEEEC2Ev(ptr noundef nonnull align 8 dereferenceable(8) %1)
          to label %25 unwind label %30

25:                                               ; preds = %24
  store i32 1, ptr %6, align 4
  br label %26

26:                                               ; preds = %25, %21
  call void @llvm.lifetime.end.p0(i64 8, ptr %3) #19
  call void @llvm.lifetime.end.p0(i64 32, ptr %2) #19
  %27 = getelementptr inbounds nuw %"class.boost::chrono::time_point", ptr %1, i32 0, i32 0
  %28 = getelementptr inbounds nuw %"class.boost::chrono::duration", ptr %27, i32 0, i32 0
  %29 = load i64, ptr %28, align 8
  ret i64 %29

30:                                               ; preds = %24, %20, %18, %15, %11
  %31 = landingpad { ptr, i32 }
          catch ptr null
  %32 = extractvalue { ptr, i32 } %31, 0
  call void @__clang_call_terminate(ptr %32) #20
  unreachable
}