; Function Attrs: mustprogress nounwind uwtable
define i64 @_ZN5boost6chrono22process_real_cpu_clock3nowEv() local_unnamed_addr #4 align 2 personality ptr @__gxx_personality_v0 {
  %1 = alloca %struct.tms, align 8
  call void @llvm.lifetime.start.p0(i64 32, ptr nonnull %1) #23
  %2 = call i64 @times(ptr noundef nonnull %1) #23
  %3 = icmp eq i64 %2, -1
  br i1 %3, label %_ZN5boost6chrono10time_pointINS0_22process_real_cpu_clockENS0_8durationIlSt5ratioILl1ELl1000000000EEEEEC2Ev.exit, label %4

4:                                                ; preds = %0
  %5 = tail call i64 @sysconf(i32 noundef 2) #23
  %6 = add i64 %5, -1000000001
  %or.cond = icmp ult i64 %6, -1000000000
  br i1 %or.cond, label %_ZN5boost6chrono10time_pointINS0_22process_real_cpu_clockENS0_8durationIlSt5ratioILl1ELl1000000000EEEEEC2Ev.exit, label %_ZN5boost6chrono13chrono_detail11tick_factorEv.exit

_ZN5boost6chrono13chrono_detail11tick_factorEv.exit: ; preds = %4
  %7 = tail call i64 @sysconf(i32 noundef 2) #23
  %8 = icmp slt i64 %7, 1
  br i1 %8, label %_ZN5boost6chrono13chrono_detail11tick_factorEv.exit5, label %9

9:                                                ; preds = %_ZN5boost6chrono13chrono_detail11tick_factorEv.exit
  %10 = udiv i64 1000000000, %7
  %.not.i2 = icmp ugt i64 %7, 1000000000
  %spec.store.select.i3 = select i1 %.not.i2, i64 -1, i64 %10
  br label %_ZN5boost6chrono13chrono_detail11tick_factorEv.exit5

_ZN5boost6chrono13chrono_detail11tick_factorEv.exit5: ; preds = %_ZN5boost6chrono13chrono_detail11tick_factorEv.exit, %9
  %.0.i4 = phi i64 [ %spec.store.select.i3, %9 ], [ -1, %_ZN5boost6chrono13chrono_detail11tick_factorEv.exit ]
  %11 = mul nsw i64 %.0.i4, %2
  br label %_ZN5boost6chrono10time_pointINS0_22process_real_cpu_clockENS0_8durationIlSt5ratioILl1ELl1000000000EEEEEC2Ev.exit

_ZN5boost6chrono10time_pointINS0_22process_real_cpu_clockENS0_8durationIlSt5ratioILl1ELl1000000000EEEEEC2Ev.exit: ; preds = %4, %0, %_ZN5boost6chrono13chrono_detail11tick_factorEv.exit5
  %.sroa.06.0 = phi i64 [ %11, %_ZN5boost6chrono13chrono_detail11tick_factorEv.exit5 ], [ 0, %0 ], [ 0, %4 ]
  call void @llvm.lifetime.end.p0(i64 32, ptr nonnull %1) #23
  ret i64 %.sroa.06.0
}